; Function Attrs: inlinehint nounwind uwtable
define internal fastcc i32 @_has_prefix(ptr noundef nonnull captures(none) %0, ptr noundef %1) unnamed_addr #12 {
  %3 = load ptr, ptr %0, align 8, !tbaa !6
  %4 = tail call i32 @g_str_has_prefix(ptr noundef %3, ptr noundef %1) #16
  %.not = icmp eq i32 %4, 0
  br i1 %.not, label %9, label %5

5:                                                ; preds = %2
  %6 = tail call i64 @strlen(ptr noundef nonnull dereferenceable(1) %1) #17
  %7 = load ptr, ptr %0, align 8, !tbaa !6
  %8 = getelementptr inbounds nuw i8, ptr %7, i64 %6
  store ptr %8, ptr %0, align 8, !tbaa !6
  br label %9

9:                                                ; preds = %5, %2
  ret i32 %4
}